target datalayout = "e-m:e-p270:32:32-p271:32:32-p272:64:64-i64:64-i128:128-f80:128-n8:16:32:64-S128"
target triple = "x86_64-pc-linux-gnu"

%struct._DlsMat = type { i32, i64, i64, i64, i64, i64, i64, ptr, i64, ptr }

; Function Attrs: nounwind uwtable
define void @DestroyMat(ptr noundef %0) #0 {
  %2 = alloca ptr, align 8
  store ptr %0, ptr %2, align 8, !tbaa !7
  %3 = load ptr, ptr %2, align 8, !tbaa !7
  %4 = getelementptr inbounds nuw %struct._DlsMat, ptr %3, i32 0, i32 7
  %5 = load ptr, ptr %4, align 8, !tbaa !10
  call void @free(ptr noundef %5) #5
  %6 = load ptr, ptr %2, align 8, !tbaa !7
  %7 = getelementptr inbounds nuw %struct._DlsMat, ptr %6, i32 0, i32 7
  store ptr null, ptr %7, align 8, !tbaa !10
  %8 = load ptr, ptr %2, align 8, !tbaa !7
  %9 = getelementptr inbounds nuw %struct._DlsMat, ptr %8, i32 0, i32 9
  %10 = load ptr, ptr %9, align 8, !tbaa !15
  call void @free(ptr noundef %10) #5
  %11 = load ptr, ptr %2, align 8, !tbaa !7
  call void @free(ptr noundef %11) #5
  store ptr null, ptr %2, align 8, !tbaa !7
  ret void
}